target datalayout = "e-m:e-p270:32:32-p271:32:32-p272:64:64-i64:64-i128:128-f80:128-n8:16:32:64-S128"
target triple = "x86_64-pc-linux-gnu"

; Function Attrs: nounwind uwtable
define internal i64 @signal_alarm_impl(ptr noundef %0, i32 noundef %1) #0 {
  %3 = alloca ptr, align 8
  %4 = alloca i32, align 4
  store ptr %0, ptr %3, align 8, !tbaa !179
  store i32 %1, ptr %4, align 4, !tbaa !4
  %5 = load i32, ptr %4, align 4, !tbaa !4
  %6 = call i32 @alarm(i32 noundef %5) #10
  %7 = zext i32 %6 to i64
  ret i64 %7
}

; Function Attrs: nounwind uwtable
define internal ptr @signal_alarm(ptr noundef %0, ptr noundef %1) #0 {
  %3 = alloca ptr, align 8
  %4 = alloca ptr, align 8
  %5 = alloca ptr, align 8
  %6 = alloca i32, align 4
  %7 = alloca i64, align 8
  store ptr %0, ptr %3, align 8, !tbaa !179
  store ptr %1, ptr %4, align 8, !tbaa !179
  call void @llvm.lifetime.start.p0(i64 8, ptr %5) #10
  store ptr null, ptr %5, align 8, !tbaa !179
  call void @llvm.lifetime.start.p0(i64 4, ptr %6) #10
  call void @llvm.lifetime.start.p0(i64 8, ptr %7) #10
  %8 = load ptr, ptr %4, align 8, !tbaa !179
  %9 = call i32 @PyLong_AsInt(ptr noundef %8)
  store i32 %9, ptr %6, align 4, !tbaa !4
  %10 = load i32, ptr %6, align 4, !tbaa !4
  %11 = icmp eq i32 %10, -1
  br i1 %11, label %12, label %16

12:                                               ; preds = %2
  %13 = call ptr @PyErr_Occurred()
  %14 = icmp ne ptr %13, null
  br i1 %14, label %15, label %16

15:                                               ; preds = %12
  br label %29

16:                                               ; preds = %12, %2
  %17 = load ptr, ptr %3, align 8, !tbaa !179
  %18 = load i32, ptr %6, align 4, !tbaa !4
  %19 = call i64 @signal_alarm_impl(ptr noundef %17, i32 noundef %18)
  store i64 %19, ptr %7, align 8, !tbaa !189
  %20 = load i64, ptr %7, align 8, !tbaa !189
  %21 = icmp eq i64 %20, -1
  br i1 %21, label %22, label %26

22:                                               ; preds = %16
  %23 = call ptr @PyErr_Occurred()
  %24 = icmp ne ptr %23, null
  br i1 %24, label %25, label %26

25:                                               ; preds = %22
  br label %29

26:                                               ; preds = %22, %16
  %27 = load i64, ptr %7, align 8, !tbaa !189
  %28 = call ptr @PyLong_FromLong(i64 noundef %27)
  store ptr %28, ptr %5, align 8, !tbaa !179
  br label %29

29:                                               ; preds = %26, %25, %15
  %30 = load ptr, ptr %5, align 8, !tbaa !179
  call void @llvm.lifetime.end.p0(i64 8, ptr %7) #10
  call void @llvm.lifetime.end.p0(i64 4, ptr %6) #10
  call void @llvm.lifetime.end.p0(i64 8, ptr %5) #10
  ret ptr %30
}