; Function Attrs: nounwind uwtable
define internal ptr @signal_alarm(ptr readnone captures(none) %0, ptr noundef %1) #2 {
  %3 = tail call i32 @PyLong_AsInt(ptr noundef %1) #15
  %4 = icmp eq i32 %3, -1
  br i1 %4, label %5, label %.split

5:                                                ; preds = %2
  %6 = tail call ptr @PyErr_Occurred() #15
  %.not = icmp eq ptr %6, null
  br i1 %.not, label %.split, label %9

.split:                                           ; preds = %5, %2
  %.sink = phi i32 [ %3, %2 ], [ -1, %5 ]
  %7 = tail call i32 @alarm(i32 noundef %.sink) #15
  %phi.call = zext i32 %7 to i64
  %8 = tail call ptr @PyLong_FromLong(i64 noundef %phi.call) #15
  br label %9

9:                                                ; preds = %5, %.split
  %.0 = phi ptr [ null, %5 ], [ %8, %.split ]
  ret ptr %.0
}